; Function Attrs: nofree nounwind uwtable
define range(i64 0, 4294967296) i64 @zfp_decode_partial_block_strided_double_1(ptr noundef readonly captures(none) %0, ptr noundef writeonly captures(none) %1, i64 noundef %2, i64 noundef %3) local_unnamed_addr #0 {
  %5 = alloca [4 x double], align 256
  call void @llvm.lifetime.start.p0(i64 32, ptr nonnull %5) #8
  %6 = call i64 @zfp_decode_block_double_1(ptr noundef %0, ptr noundef nonnull %5)
  %.not.i = icmp eq i64 %2, 0
  br i1 %.not.i, label %scatter_partial_double_1.exit, label %.lr.ph.i

.lr.ph.i:                                         ; preds = %4, %.lr.ph.i
  %.010.i = phi i64 [ %9, %.lr.ph.i ], [ 0, %4 ]
  %.069.i = phi ptr [ %7, %.lr.ph.i ], [ %5, %4 ]
  %.078.i = phi ptr [ %10, %.lr.ph.i ], [ %1, %4 ]
  %7 = getelementptr inbounds nuw i8, ptr %.069.i, i64 8
  %8 = load double, ptr %.069.i, align 8, !tbaa !20
  store double %8, ptr %.078.i, align 8, !tbaa !20
  %9 = add nuw i64 %.010.i, 1
  %10 = getelementptr inbounds double, ptr %.078.i, i64 %3
  %exitcond.not.i = icmp eq i64 %9, %2
  br i1 %exitcond.not.i, label %scatter_partial_double_1.exit, label %.lr.ph.i

scatter_partial_double_1.exit:                    ; preds = %.lr.ph.i, %4
  call void @llvm.lifetime.end.p0(i64 32, ptr nonnull %5) #8
  ret i64 %6
}